; Function Attrs: mustprogress uwtable
define internal void @_ZNK9grpc_core11json_detail10AutoLoaderINS_13RefCountedPtrINS_12_GLOBAL__N_122WeightedTargetLbConfigEEEE5ResetEPv(ptr nocapture nonnull readnone align 8 %this, ptr nocapture noundef %dst) unnamed_addr #3 align 2 personality ptr @__gxx_personality_v0 {
entry:
  %0 = load ptr, ptr %dst, align 8
  store ptr null, ptr %dst, align 8
  %cmp.not.i = icmp eq ptr %0, null
  br i1 %cmp.not.i, label %_ZN9grpc_core13RefCountedPtrINS_12_GLOBAL__N_122WeightedTargetLbConfigEE5resetEPS2_.exit, label %if.then.i

if.then.i:                                        ; preds = %entry
  %refs_.i.i = getelementptr inbounds i8, ptr %0, i64 8
  %1 = atomicrmw sub ptr %refs_.i.i, i64 1 acq_rel, align 8
  %cmp.i.i.i = icmp eq i64 %1, 1
  br i1 %cmp.i.i.i, label %if.then.i.i, label %_ZN9grpc_core13RefCountedPtrINS_12_GLOBAL__N_122WeightedTargetLbConfigEE5resetEPS2_.exit

if.then.i.i:                                      ; preds = %if.then.i
  %vtable.i.i.i = load ptr, ptr %0, align 8
  %vfn.i.i.i = getelementptr inbounds i8, ptr %vtable.i.i.i, i64 8
  %2 = load ptr, ptr %vfn.i.i.i, align 8
  tail call void %2(ptr noundef nonnull align 8 dereferenceable(16) %0) #26
  br label %_ZN9grpc_core13RefCountedPtrINS_12_GLOBAL__N_122WeightedTargetLbConfigEE5resetEPS2_.exit

_ZN9grpc_core13RefCountedPtrINS_12_GLOBAL__N_122WeightedTargetLbConfigEE5resetEPS2_.exit: ; preds = %entry, %if.then.i, %if.then.i.i
  ret void
}